; Function Attrs: mustprogress nofree norecurse nosync nounwind willreturn memory(argmem: write) uwtable
define hidden void @_ZN10smt_params14setup_QF_UFIDLEv(ptr nocapture noundef nonnull writeonly align 8 dereferenceable(800) %this) local_unnamed_addr #6 align 2 {
entry:
  %m_relevancy_lvl = getelementptr inbounds i8, ptr %this, i64 512
  store i32 0, ptr %m_relevancy_lvl, align 8
  %add.ptr = getelementptr inbounds i8, ptr %this, i64 248
  %m_arith_reflect = getelementptr inbounds i8, ptr %this, i64 284
  store i8 0, ptr %m_arith_reflect, align 4
  %m_nnf_cnf = getelementptr inbounds i8, ptr %this, i64 58
  store i8 0, ptr %m_nnf_cnf, align 2
  %m_arith_eq_bounds = getelementptr inbounds i8, ptr %this, i64 360
  store i8 1, ptr %m_arith_eq_bounds, align 8
  store i8 1, ptr %add.ptr, align 8
  %m_restart_strategy = getelementptr inbounds i8, ptr %this, i64 636
  store i32 0, ptr %m_restart_strategy, align 4
  %m_restart_factor = getelementptr inbounds i8, ptr %this, i64 648
  store double 1.500000e+00, ptr %m_restart_factor, align 8
  %m_restart_adaptive = getelementptr inbounds i8, ptr %this, i64 656
  store i8 0, ptr %m_restart_adaptive, align 8
  ret void
}